; Function Attrs: mustprogress nounwind uwtable
define dso_local void @_ZN4llvm13LiveRangeEdit12eraseVirtRegENS_8RegisterE(ptr noundef nonnull readonly align 8 captures(none) dereferenceable(208) %0, i32 %1) local_unnamed_addr #1 align 2 {
  %3 = getelementptr inbounds nuw i8, ptr %0, i64 56
  %4 = load ptr, ptr %3, align 8
  %.not = icmp eq ptr %4, null
  br i1 %.not, label %23, label %5

5:                                                ; preds = %2
  %6 = load ptr, ptr %4, align 8
  %7 = getelementptr inbounds nuw i8, ptr %6, i64 32
  %8 = load ptr, ptr %7, align 8
  %9 = tail call noundef zeroext i1 %8(ptr noundef nonnull align 8 dereferenceable(8) %4, i32 %1) #10
  br i1 %9, label %10, label %23

10:                                               ; preds = %5
  %11 = getelementptr inbounds nuw i8, ptr %0, i64 32
  %12 = load ptr, ptr %11, align 8
  %13 = getelementptr inbounds nuw i8, ptr %12, i64 152
  %14 = and i32 %1, 2147483647
  %15 = zext nneg i32 %14 to i64
  %16 = load ptr, ptr %13, align 8
  %17 = getelementptr inbounds nuw ptr, ptr %16, i64 %15
  %18 = load ptr, ptr %17, align 8
  %19 = icmp eq ptr %18, null
  br i1 %19, label %_ZN4llvm13LiveIntervals14removeIntervalENS_8RegisterE.exit, label %20

20:                                               ; preds = %10
  tail call void @_ZN4llvm12LiveIntervalD2Ev(ptr noundef nonnull align 8 dereferenceable(120) %18) #10
  tail call void @_ZdlPvm(ptr noundef nonnull %18, i64 noundef 120) #11
  %.pre.i = load ptr, ptr %13, align 8
  br label %_ZN4llvm13LiveIntervals14removeIntervalENS_8RegisterE.exit

_ZN4llvm13LiveIntervals14removeIntervalENS_8RegisterE.exit: ; preds = %10, %20
  %21 = phi ptr [ %.pre.i, %20 ], [ %16, %10 ]
  %22 = getelementptr inbounds nuw ptr, ptr %21, i64 %15
  store ptr null, ptr %22, align 8
  br label %23

23:                                               ; preds = %_ZN4llvm13LiveIntervals14removeIntervalENS_8RegisterE.exit, %5, %2
  ret void
}